	.section	__TEXT,__text,regular,pure_instructions
	.build_version macos, 10, 15	sdk_version 10, 15, 6
	.globl	_multstore              ## -- Begin function multstore
	.p2align	4, 0x90
_multstore:                             ## @multstore
Lfunc_begin0:
	.file	1 "/Users/Wei/github/letsplayc/src/programming_paradigms/assembly" "mult2.c"
	.loc	1 8 0                   ## mult2.c:8:0
	.cfi_startproc
## %bb.0:
	pushq	%rbp
	.cfi_def_cfa_offset 16
	.cfi_offset %rbp, -16
	movq	%rsp, %rbp
	.cfi_def_cfa_register %rbp
	subq	$32, %rsp
	movq	%rdi, -8(%rbp)
	movq	%rsi, -16(%rbp)
	movq	%rdx, -24(%rbp)
Ltmp0:
	.loc	1 9 17 prologue_end     ## mult2.c:9:17
	movq	-8(%rbp), %rdi
	.loc	1 9 20 is_stmt 0        ## mult2.c:9:20
	movq	-16(%rbp), %rsi
	.loc	1 9 11                  ## mult2.c:9:11
	callq	_mult2
	.loc	1 9 7                   ## mult2.c:9:7
	movq	%rax, -32(%rbp)
	.loc	1 10 10 is_stmt 1       ## mult2.c:10:10
	movq	-32(%rbp), %rax
	.loc	1 10 3 is_stmt 0        ## mult2.c:10:3
	movq	-24(%rbp), %rcx
	.loc	1 10 8                  ## mult2.c:10:8
	movq	%rax, (%rcx)
	.loc	1 11 1 is_stmt 1        ## mult2.c:11:1
	addq	$32, %rsp
	popq	%rbp
	retq
Ltmp1:
Lfunc_end0:
	.cfi_endproc
                                        ## -- End function
	.globl	_mult2                  ## -- Begin function mult2
	.p2align	4, 0x90
_mult2:                                 ## @mult2
Lfunc_begin1:
	.loc	1 13 0                  ## mult2.c:13:0
	.cfi_startproc
## %bb.0:
	pushq	%rbp
	.cfi_def_cfa_offset 16
	.cfi_offset %rbp, -16
	movq	%rsp, %rbp
	.cfi_def_cfa_register %rbp
	movq	%rdi, -8(%rbp)
	movq	%rsi, -16(%rbp)
Ltmp2:
	.loc	1 14 9 prologue_end     ## mult2.c:14:9
	movq	-8(%rbp), %rax
	.loc	1 14 11 is_stmt 0       ## mult2.c:14:11
	imulq	-16(%rbp), %rax
	.loc	1 14 2                  ## mult2.c:14:2
	popq	%rbp
	retq
Ltmp3:
Lfunc_end1:
	.cfi_endproc
                                        ## -- End function